(dp1
S'output'
p2
S"<type 'exceptions.ValueError'> Invalid objectid argument string. Requires an integer or base 16 value"
p3
sS'layer'
p4
S'/Users/Sihui/Development/MarkIt_Envir/MarkIt/web2py/applications/MarkIt/controllers/default.py'
p5
sS'code'
p6
S'# -*- coding: utf-8 -*-\n# this file is released under public domain and you can use without limitations\n\n#########################################################################\n## This is a sample controller\n## - index is the default action of any application\n## - user is required for authentication and authorization\n## - download is for downloading files uploaded in the db (does streaming)\n## - call exposes all registered services (none by default)\n#########################################################################\n\n\ndef index():\n    """\n    example action using the internationalization operator T and flash\n    rendered by views/default/index.html or views/generic.html\n \n    if you need a simple wiki simply replace the two lines below with:\n    return auth.wiki()\n    """\n    #db.url_folder.insert(url=1, folder= 1)\n    response.flash = T("Welcome to web2py!")\n    return dict(message=T(\'Hello World\'))\n\ndef new():\n    response.delimiters = (\'<?\',\'?>\')\n    url_form=SQLFORM(db.url).process()\n    tag_form=SQLFORM(db.tag).process()\n    url_tag_form=SQLFORM(db.url_tag).process()\n    return locals()\n\ndef user():\n    """\n    exposes:\n    http://..../[app]/default/user/login\n    http://..../[app]/default/user/logout\n    http://..../[app]/default/user/register\n    http://..../[app]/default/user/profile\n    http://..../[app]/default/user/retrieve_password\n    http://..../[app]/default/user/change_password\n    http://..../[app]/default/user/manage_users (requires membership in\n    use @auth.requires_login()\n        @auth.requires_membership(\'group name\')\n        @auth.requires_permission(\'read\',\'table name\',record_id)\n    to decorate functions that need access control\n    """\n    return dict(form=auth())\n\n@cache.action()\ndef download():\n    """\n    allows downloading of uploaded files\n    http://..../[app]/default/download/[filename]\n    """\n    return response.download(request, db)\n\n\ndef call():\n    """\n    exposes services. for example:\n    http://..../[app]/default/call/jsonrpc\n    decorate with @services.jsonrpc the functions to expose\n    supports xml, json, xmlrpc, jsonrpc, amfrpc, rss, csv\n    """\n    return service()\n\n\n@auth.requires_signature()\ndef data():\n    """\n    http://..../[app]/default/data/tables\n    http://..../[app]/default/data/create/[table]\n    http://..../[app]/default/data/read/[table]/[id]\n    http://..../[app]/default/data/update/[table]/[id]\n    http://..../[app]/default/data/delete/[table]/[id]\n    http://..../[app]/default/data/select/[table]\n    http://..../[app]/default/data/search/[table]\n    but URLs must be signed, i.e. linked with\n      A(\'table\',_href=URL(\'data/tables\',user_signature=True))\n    or with the signed load operator\n      LOAD(\'default\',\'data.load\',args=\'tables\',ajax=True,user_signature=True)\n    """\n    return dict(form=crud())\n\nresponse._vars=response._caller(new)\n'
p7
sS'snapshot'
p8
(dp9
sS'traceback'
p10
S'Traceback (most recent call last):\n  File "/Users/Sihui/Development/MarkIt_Envir/MarkIt/web2py/gluon/restricted.py", line 220, in restricted\n    exec ccode in environment\n  File "/Users/Sihui/Development/MarkIt_Envir/MarkIt/web2py/applications/MarkIt/controllers/default.py", line 85, in <module>\n  File "/Users/Sihui/Development/MarkIt_Envir/MarkIt/web2py/gluon/globals.py", line 385, in <lambda>\n    self._caller = lambda f: f()\n  File "/Users/Sihui/Development/MarkIt_Envir/MarkIt/web2py/applications/MarkIt/controllers/default.py", line 29, in new\n    url_tag_form=SQLFORM(db.url_tag).process()\n  File "/Users/Sihui/Development/MarkIt_Envir/MarkIt/web2py/gluon/html.py", line 2282, in process\n    self.validate(**kwargs)\n  File "/Users/Sihui/Development/MarkIt_Envir/MarkIt/web2py/gluon/html.py", line 2219, in validate\n    if self.accepts(**kwargs):\n  File "/Users/Sihui/Development/MarkIt_Envir/MarkIt/web2py/gluon/sqlhtml.py", line 1381, in accepts\n    **kwargs\n  File "/Users/Sihui/Development/MarkIt_Envir/MarkIt/web2py/gluon/html.py", line 2100, in accepts\n    status = self._traverse(status, hideerror)\n  File "/Users/Sihui/Development/MarkIt_Envir/MarkIt/web2py/gluon/html.py", line 872, in _traverse\n    newstatus = c._traverse(status, hideerror) and newstatus\n  File "/Users/Sihui/Development/MarkIt_Envir/MarkIt/web2py/gluon/html.py", line 872, in _traverse\n    newstatus = c._traverse(status, hideerror) and newstatus\n  File "/Users/Sihui/Development/MarkIt_Envir/MarkIt/web2py/gluon/html.py", line 872, in _traverse\n    newstatus = c._traverse(status, hideerror) and newstatus\n  File "/Users/Sihui/Development/MarkIt_Envir/MarkIt/web2py/gluon/html.py", line 872, in _traverse\n    newstatus = c._traverse(status, hideerror) and newstatus\n  File "/Users/Sihui/Development/MarkIt_Envir/MarkIt/web2py/gluon/html.py", line 879, in _traverse\n    newstatus = self._validate()\n  File "/Users/Sihui/Development/MarkIt_Envir/MarkIt/web2py/gluon/html.py", line 1843, in _validate\n    (value, errors) = validator(value)\n  File "/Users/Sihui/Development/MarkIt_Envir/MarkIt/web2py/gluon/validators.py", line 604, in __call__\n    if self.dbset(field == value).count():\n  File "/Users/Sihui/Development/MarkIt_Envir/MarkIt/web2py/gluon/dal.py", line 10515, in count\n    return db._adapter.count(self.query,distinct)\n  File "/Users/Sihui/Development/MarkIt_Envir/MarkIt/web2py/gluon/dal.py", line 5734, in count\n    count=True,snapshot=snapshot)[\'count\'])\n  File "/Users/Sihui/Development/MarkIt_Envir/MarkIt/web2py/gluon/dal.py", line 5835, in select\n    mongoqry_dict = self.expand(query)\n  File "/Users/Sihui/Development/MarkIt_Envir/MarkIt/web2py/gluon/dal.py", line 5755, in expand\n    item in expression.second]\n  File "/Users/Sihui/Development/MarkIt_Envir/MarkIt/web2py/gluon/dal.py", line 5653, in object_id\n    "Requires an integer or base 16 value")\nValueError: Invalid objectid argument string. Requires an integer or base 16 value\n'
p11
s.